target datalayout = "e-m:e-p270:32:32-p271:32:32-p272:64:64-i64:64-i128:128-f80:128-n8:16:32:64-S128"
target triple = "x86_64-pc-linux-gnu"

%struct.expert_field = type { i32, i32 }
%struct._packet_info = type { ptr, ptr, i32, i32, %struct.nstime_t, %struct.nstime_t, %struct.nstime_t, i8, ptr, ptr, ptr, ptr, %struct._address, %struct._address, %struct._address, %struct._address, %struct._address, %struct._address, i32, ptr, i8, [3 x i8], %struct.anon, i32, i32, i32, i32, ptr, i8, ptr, ptr, i16, i16, i32, i32, i16, i32, i32, ptr, ptr, ptr, i8, i8, i16, i16, i16, i32, i16, i16, ptr, ptr, ptr, ptr, ptr, i32, i32 }
%struct.nstime_t = type { i64, i32 }
%struct._address = type { i32, i32, ptr, ptr }
%struct.anon = type { i8, [3 x i8] }
%struct.fp_info = type { i32, i32, i8, i16, i8, i8, i32, i8, i32, [64 x i32], [64 x i32], i32, [16 x i8], [16 x i32], [16 x i32], i8, i32, i32, i32, i16, i16, i32, ptr, ptr, i32, i32, [8 x i8], i32, i32, i32, i8 }
%struct.rlc_info = type { [64 x i32], [64 x i8], [64 x i8], [64 x i32], [64 x i8], [64 x i8] }

@ett_rlc = internal global i32 0, align 4
@ei_rlc_no_per_frame_data = internal global %struct.expert_field zeroinitializer, align 4
@.str.126 = private unnamed_addr constant [4 x i8] c"RLC\00", align 1
@proto_umts_rlc = hidden global i32 0, align 4
@proto_fp = external global i32, align 4
@.str.263 = private unnamed_addr constant [14 x i8] c" UM (PS DTCH)\00", align 1
@.str.264 = private unnamed_addr constant [14 x i8] c" AM (PS DTCH)\00", align 1
@.str.265 = private unnamed_addr constant [14 x i8] c" TM (PS DTCH)\00", align 1

; Function Attrs: null_pointer_is_valid sspstrong uwtable
define internal i32 @dissect_rlc_ps_dtch(ptr noundef %0, ptr noundef %1, ptr noundef %2, ptr noundef %3) #0 {
  %5 = alloca i32, align 4
  %6 = alloca ptr, align 8
  %7 = alloca ptr, align 8
  %8 = alloca ptr, align 8
  %9 = alloca ptr, align 8
  %10 = alloca ptr, align 8
  %11 = alloca ptr, align 8
  %12 = alloca ptr, align 8
  %13 = alloca ptr, align 8
  %14 = alloca ptr, align 8
  %15 = alloca i32, align 4
  store ptr %0, ptr %6, align 8
  store ptr %1, ptr %7, align 8
  store ptr %2, ptr %8, align 8
  store ptr %3, ptr %9, align 8
  call void @llvm.lifetime.start.p0(i64 8, ptr %10) #18
  store ptr null, ptr %10, align 8
  call void @llvm.lifetime.start.p0(i64 8, ptr %11) #18
  store ptr null, ptr %11, align 8
  call void @llvm.lifetime.start.p0(i64 8, ptr %12) #18
  call void @llvm.lifetime.start.p0(i64 8, ptr %13) #18
  call void @llvm.lifetime.start.p0(i64 8, ptr %14) #18
  %16 = load ptr, ptr %9, align 8
  store ptr %16, ptr %14, align 8
  %17 = load ptr, ptr %7, align 8
  %18 = getelementptr inbounds nuw %struct._packet_info, ptr %17, i32 0, i32 1
  %19 = load ptr, ptr %18, align 8
  call void @col_set_str(ptr noundef %19, i32 noundef 35, ptr noundef @.str.126)
  %20 = load ptr, ptr %7, align 8
  %21 = getelementptr inbounds nuw %struct._packet_info, ptr %20, i32 0, i32 1
  %22 = load ptr, ptr %21, align 8
  call void @col_clear(ptr noundef %22, i32 noundef 25)
  %23 = call ptr @wmem_file_scope()
  %24 = load ptr, ptr %7, align 8
  %25 = load i32, ptr @proto_fp, align 4
  %26 = call ptr @p_get_proto_data(ptr noundef %23, ptr noundef %24, i32 noundef %25, i32 noundef 0)
  store ptr %26, ptr %12, align 8
  %27 = call ptr @wmem_file_scope()
  %28 = load ptr, ptr %7, align 8
  %29 = load i32, ptr @proto_umts_rlc, align 4
  %30 = call ptr @p_get_proto_data(ptr noundef %27, ptr noundef %28, i32 noundef %29, i32 noundef 0)
  store ptr %30, ptr %13, align 8
  %31 = load ptr, ptr %12, align 8
  %32 = icmp ne ptr %31, null
  br i1 %32, label %33, label %36

33:                                               ; preds = %4
  %34 = load ptr, ptr %13, align 8
  %35 = icmp ne ptr %34, null
  br i1 %35, label %41, label %36

36:                                               ; preds = %33, %4
  %37 = load ptr, ptr %8, align 8
  %38 = load ptr, ptr %7, align 8
  %39 = load ptr, ptr %6, align 8
  %40 = call ptr @proto_tree_add_expert(ptr noundef %37, ptr noundef %38, ptr noundef @ei_rlc_no_per_frame_data, ptr noundef %39, i32 noundef 0, i32 noundef -1)
  store i32 1, ptr %5, align 4
  store i32 1, ptr %15, align 4
  br label %85

41:                                               ; preds = %33
  %42 = load ptr, ptr %8, align 8
  %43 = icmp ne ptr %42, null
  br i1 %43, label %44, label %52

44:                                               ; preds = %41
  %45 = load ptr, ptr %8, align 8
  %46 = load i32, ptr @proto_umts_rlc, align 4
  %47 = load ptr, ptr %6, align 8
  %48 = call ptr @proto_tree_add_item(ptr noundef %45, i32 noundef %46, ptr noundef %47, i32 noundef 0, i32 noundef -1, i32 noundef 0)
  store ptr %48, ptr %10, align 8
  %49 = load ptr, ptr %10, align 8
  %50 = load i32, ptr @ett_rlc, align 4
  %51 = call ptr @proto_item_add_subtree(ptr noundef %49, i32 noundef %50)
  store ptr %51, ptr %11, align 8
  br label %52

52:                                               ; preds = %44, %41
  %53 = load ptr, ptr %13, align 8
  %54 = getelementptr inbounds nuw %struct.rlc_info, ptr %53, i32 0, i32 1
  %55 = load ptr, ptr %12, align 8
  %56 = getelementptr inbounds nuw %struct.fp_info, ptr %55, i32 0, i32 16
  %57 = load i32, ptr %56, align 4
  %58 = sext i32 %57 to i64
  %59 = getelementptr [64 x i8], ptr %54, i64 0, i64 %58
  %60 = load i8, ptr %59, align 1
  %61 = zext i8 %60 to i32
  switch i32 %61, label %82 [
    i32 1, label %62
    i32 2, label %69
    i32 0, label %76
  ]

62:                                               ; preds = %52
  %63 = load ptr, ptr %10, align 8
  call void (ptr, ptr, ...) @proto_item_append_text(ptr noundef %63, ptr noundef @.str.263)
  %64 = load ptr, ptr %6, align 8
  %65 = load ptr, ptr %7, align 8
  %66 = load ptr, ptr %8, align 8
  %67 = load ptr, ptr %11, align 8
  %68 = load ptr, ptr %14, align 8
  call void @dissect_rlc_um(i32 noundef 6, ptr noundef %64, ptr noundef %65, ptr noundef %66, ptr noundef %67, ptr noundef %68)
  br label %82

69:                                               ; preds = %52
  %70 = load ptr, ptr %10, align 8
  call void (ptr, ptr, ...) @proto_item_append_text(ptr noundef %70, ptr noundef @.str.264)
  %71 = load ptr, ptr %6, align 8
  %72 = load ptr, ptr %7, align 8
  %73 = load ptr, ptr %8, align 8
  %74 = load ptr, ptr %11, align 8
  %75 = load ptr, ptr %14, align 8
  call void @dissect_rlc_am(i32 noundef 6, ptr noundef %71, ptr noundef %72, ptr noundef %73, ptr noundef %74, ptr noundef %75)
  br label %82

76:                                               ; preds = %52
  %77 = load ptr, ptr %10, align 8
  call void (ptr, ptr, ...) @proto_item_append_text(ptr noundef %77, ptr noundef @.str.265)
  %78 = load ptr, ptr %6, align 8
  %79 = load ptr, ptr %7, align 8
  %80 = load ptr, ptr %8, align 8
  %81 = load ptr, ptr %11, align 8
  call void @dissect_rlc_tm(i32 noundef 6, ptr noundef %78, ptr noundef %79, ptr noundef %80, ptr noundef %81)
  br label %82

82:                                               ; preds = %52, %76, %69, %62
  %83 = load ptr, ptr %6, align 8
  %84 = call i32 @tvb_captured_length(ptr noundef %83)
  store i32 %84, ptr %5, align 4
  store i32 1, ptr %15, align 4
  br label %85

85:                                               ; preds = %82, %36
  call void @llvm.lifetime.end.p0(i64 8, ptr %14) #18
  call void @llvm.lifetime.end.p0(i64 8, ptr %13) #18
  call void @llvm.lifetime.end.p0(i64 8, ptr %12) #18
  call void @llvm.lifetime.end.p0(i64 8, ptr %11) #18
  call void @llvm.lifetime.end.p0(i64 8, ptr %10) #18
  %86 = load i32, ptr %5, align 4
  ret i32 %86
}