; Function Attrs: null_pointer_is_valid sspstrong uwtable
define internal i32 @dissect_rlc_ps_dtch(ptr noundef %0, ptr noundef %1, ptr noundef %2, ptr noundef captures(address_is_null) %3) #0 {
  %5 = getelementptr inbounds nuw i8, ptr %1, i64 8
  %6 = load ptr, ptr %5, align 8
  tail call void @col_set_str(ptr noundef %6, i32 noundef 35, ptr noundef nonnull @.str.126)
  %7 = load ptr, ptr %5, align 8
  tail call void @col_clear(ptr noundef %7, i32 noundef 25)
  %8 = tail call ptr @wmem_file_scope()
  %9 = load i32, ptr @proto_fp, align 4
  %10 = tail call ptr @p_get_proto_data(ptr noundef %8, ptr noundef %1, i32 noundef %9, i32 noundef 0)
  %11 = tail call ptr @wmem_file_scope()
  %12 = load i32, ptr @proto_umts_rlc, align 4
  %13 = tail call ptr @p_get_proto_data(ptr noundef %11, ptr noundef %1, i32 noundef %12, i32 noundef 0)
  %14 = icmp ne ptr %10, null
  %15 = icmp ne ptr %13, null
  %or.cond = select i1 %14, i1 %15, i1 false
  br i1 %or.cond, label %18, label %16

16:                                               ; preds = %4
  %17 = tail call ptr @proto_tree_add_expert(ptr noundef %2, ptr noundef %1, ptr noundef nonnull @ei_rlc_no_per_frame_data, ptr noundef %0, i32 noundef 0, i32 noundef -1)
  br label %36

18:                                               ; preds = %4
  %.not = icmp eq ptr %2, null
  br i1 %.not, label %24, label %19

19:                                               ; preds = %18
  %20 = load i32, ptr @proto_umts_rlc, align 4
  %21 = tail call ptr @proto_tree_add_item(ptr noundef nonnull %2, i32 noundef %20, ptr noundef %0, i32 noundef 0, i32 noundef -1, i32 noundef 0)
  %22 = load i32, ptr @ett_rlc, align 4
  %23 = tail call ptr @proto_item_add_subtree(ptr noundef %21, i32 noundef %22)
  br label %24

24:                                               ; preds = %19, %18
  %.036 = phi ptr [ %23, %19 ], [ null, %18 ]
  %.035 = phi ptr [ %21, %19 ], [ null, %18 ]
  %25 = getelementptr inbounds nuw i8, ptr %13, i64 256
  %26 = getelementptr inbounds nuw i8, ptr %10, i64 692
  %27 = load i32, ptr %26, align 4
  %28 = sext i32 %27 to i64
  %29 = getelementptr [64 x i8], ptr %25, i64 0, i64 %28
  %30 = load i8, ptr %29, align 1
  switch i8 %30, label %34 [
    i8 1, label %31
    i8 2, label %32
    i8 0, label %33
  ]

31:                                               ; preds = %24
  tail call void (ptr, ptr, ...) @proto_item_append_text(ptr noundef %.035, ptr noundef nonnull @.str.263)
  tail call fastcc void @dissect_rlc_um(i32 noundef 6, ptr noundef %0, ptr noundef %1, ptr noundef %2, ptr noundef %.036, ptr noundef %3)
  br label %34

32:                                               ; preds = %24
  tail call void (ptr, ptr, ...) @proto_item_append_text(ptr noundef %.035, ptr noundef nonnull @.str.264)
  tail call fastcc void @dissect_rlc_am(i32 noundef 6, ptr noundef %0, ptr noundef %1, ptr noundef %2, ptr noundef %.036, ptr noundef %3)
  br label %34

33:                                               ; preds = %24
  tail call void (ptr, ptr, ...) @proto_item_append_text(ptr noundef %.035, ptr noundef nonnull @.str.265)
  tail call fastcc void @dissect_rlc_tm(i32 noundef 6, ptr noundef %0, ptr noundef %1, ptr noundef %2, ptr noundef %.036)
  br label %34

34:                                               ; preds = %33, %32, %31, %24
  %35 = tail call i32 @tvb_captured_length(ptr noundef %0)
  br label %36

36:                                               ; preds = %34, %16
  %.0 = phi i32 [ %35, %34 ], [ 1, %16 ]
  ret i32 %.0
}